; Function Attrs: mustprogress uwtable
define internal fastcc void @_ZNK12_GLOBAL__N_16Helper21GetLibraryDestinationB5cxx11EPK25cmInstallCommandArguments(ptr dead_on_unwind noalias writable align 8 %0, ptr nocapture noundef nonnull readonly align 8 dereferenceable(48) %1, ptr noundef %2) unnamed_addr #5 align 2 personality ptr @__gxx_personality_v0 {
  %4 = alloca %"class.std::__cxx11::basic_string", align 8
  %5 = alloca %"class.std::allocator.9", align 1
  %6 = alloca %"class.std::__cxx11::basic_string", align 8
  %7 = alloca %"class.std::allocator.9", align 1
  call void @_ZNSaIcEC1Ev(ptr noundef nonnull align 1 dereferenceable(1) %5) #19
  %8 = invoke noundef ptr @_ZNSt7__cxx1112basic_stringIcSt11char_traitsIcESaIcEE13_M_local_dataEv(ptr noundef nonnull align 8 dereferenceable(32) %4)
          to label %.noexc unwind label %15

.noexc:                                           ; preds = %3
  invoke void @_ZNSt7__cxx1112basic_stringIcSt11char_traitsIcESaIcEE12_Alloc_hiderC1EPcRKS3_(ptr noundef nonnull align 8 dereferenceable(8) %4, ptr noundef %8, ptr noundef nonnull align 1 dereferenceable(1) %5)
          to label %.noexc7 unwind label %15

.noexc7:                                          ; preds = %.noexc
  invoke void @_ZNSt7__cxx1112basic_stringIcSt11char_traitsIcESaIcEE12_M_constructIPKcEEvT_S8_St20forward_iterator_tag(ptr noundef nonnull align 8 dereferenceable(32) %4, ptr noundef nonnull @.str.97, ptr noundef nonnull getelementptr inbounds ([21 x i8], ptr @.str.97, i64 0, i64 20))
          to label %_ZNSt7__cxx1112basic_stringIcSt11char_traitsIcESaIcEEC2IS3_EEPKcRKS3_.exit unwind label %9

9:                                                ; preds = %.noexc7
  %10 = landingpad { ptr, i32 }
          cleanup
  call void @_ZNSaIcED2Ev(ptr noundef nonnull align 1 dereferenceable(1) %4) #19
  br label %.body

_ZNSt7__cxx1112basic_stringIcSt11char_traitsIcESaIcEEC2IS3_EEPKcRKS3_.exit: ; preds = %.noexc7
  call void @_ZNSaIcEC1Ev(ptr noundef nonnull align 1 dereferenceable(1) %7) #19
  %11 = invoke noundef ptr @_ZNSt7__cxx1112basic_stringIcSt11char_traitsIcESaIcEE13_M_local_dataEv(ptr noundef nonnull align 8 dereferenceable(32) %6)
          to label %.noexc8 unwind label %17

.noexc8:                                          ; preds = %_ZNSt7__cxx1112basic_stringIcSt11char_traitsIcESaIcEEC2IS3_EEPKcRKS3_.exit
  invoke void @_ZNSt7__cxx1112basic_stringIcSt11char_traitsIcESaIcEE12_Alloc_hiderC1EPcRKS3_(ptr noundef nonnull align 8 dereferenceable(8) %6, ptr noundef %11, ptr noundef nonnull align 1 dereferenceable(1) %7)
          to label %.noexc9 unwind label %17

.noexc9:                                          ; preds = %.noexc8
  invoke void @_ZNSt7__cxx1112basic_stringIcSt11char_traitsIcESaIcEE12_M_constructIPKcEEvT_S8_St20forward_iterator_tag(ptr noundef nonnull align 8 dereferenceable(32) %6, ptr noundef nonnull @.str.98, ptr noundef nonnull getelementptr inbounds ([4 x i8], ptr @.str.98, i64 0, i64 3))
          to label %_ZNSt7__cxx1112basic_stringIcSt11char_traitsIcESaIcEEC2IS3_EEPKcRKS3_.exit12 unwind label %12

12:                                               ; preds = %.noexc9
  %13 = landingpad { ptr, i32 }
          cleanup
  call void @_ZNSaIcED2Ev(ptr noundef nonnull align 1 dereferenceable(1) %6) #19
  br label %.body10

_ZNSt7__cxx1112basic_stringIcSt11char_traitsIcESaIcEEC2IS3_EEPKcRKS3_.exit12: ; preds = %.noexc9
  invoke fastcc void @_ZNK12_GLOBAL__N_16Helper14GetDestinationEPK25cmInstallCommandArgumentsRKNSt7__cxx1112basic_stringIcSt11char_traitsIcESaIcEEESB_(ptr dead_on_unwind noalias writable align 8 %0, ptr noundef nonnull align 8 dereferenceable(48) %1, ptr noundef %2, ptr noundef nonnull align 8 dereferenceable(32) %4, ptr noundef nonnull align 8 dereferenceable(32) %6)
          to label %14 unwind label %19

14:                                               ; preds = %_ZNSt7__cxx1112basic_stringIcSt11char_traitsIcESaIcEEC2IS3_EEPKcRKS3_.exit12
  call void @_ZNSt7__cxx1112basic_stringIcSt11char_traitsIcESaIcEED1Ev(ptr noundef nonnull align 8 dereferenceable(32) %6) #19
  call void @_ZNSaIcED1Ev(ptr noundef nonnull align 1 dereferenceable(1) %7) #19
  call void @_ZNSt7__cxx1112basic_stringIcSt11char_traitsIcESaIcEED1Ev(ptr noundef nonnull align 8 dereferenceable(32) %4) #19
  call void @_ZNSaIcED1Ev(ptr noundef nonnull align 1 dereferenceable(1) %5) #19
  ret void

15:                                               ; preds = %.noexc, %3
  %16 = landingpad { ptr, i32 }
          cleanup
  br label %.body

17:                                               ; preds = %.noexc8, %_ZNSt7__cxx1112basic_stringIcSt11char_traitsIcESaIcEEC2IS3_EEPKcRKS3_.exit
  %18 = landingpad { ptr, i32 }
          cleanup
  br label %.body10

19:                                               ; preds = %_ZNSt7__cxx1112basic_stringIcSt11char_traitsIcESaIcEEC2IS3_EEPKcRKS3_.exit12
  %20 = landingpad { ptr, i32 }
          cleanup
  call void @_ZNSt7__cxx1112basic_stringIcSt11char_traitsIcESaIcEED1Ev(ptr noundef nonnull align 8 dereferenceable(32) %6) #19
  br label %.body10

.body10:                                          ; preds = %17, %12, %19
  %.pn = phi { ptr, i32 } [ %20, %19 ], [ %18, %17 ], [ %13, %12 ]
  call void @_ZNSaIcED1Ev(ptr noundef nonnull align 1 dereferenceable(1) %7) #19
  call void @_ZNSt7__cxx1112basic_stringIcSt11char_traitsIcESaIcEED1Ev(ptr noundef nonnull align 8 dereferenceable(32) %4) #19
  br label %.body

.body:                                            ; preds = %15, %9, %.body10
  %.pn.pn = phi { ptr, i32 } [ %.pn, %.body10 ], [ %16, %15 ], [ %10, %9 ]
  call void @_ZNSaIcED1Ev(ptr noundef nonnull align 1 dereferenceable(1) %5) #19
  resume { ptr, i32 } %.pn.pn
}